target datalayout = "e-m:e-p270:32:32-p271:32:32-p272:64:64-i64:64-i128:128-f80:128-n8:16:32:64-S128"
target triple = "x86_64-pc-linux-gnu"

%struct.PageHeaderData = type { %struct.PageXLogRecPtr, i16, i16, i16, i16, i16, i16, i32, [0 x %struct.ItemIdData] }
%struct.PageXLogRecPtr = type { i32, i32 }
%struct.ItemIdData = type { i32 }

; Function Attrs: nounwind uwtable
define dso_local void @spg_mask(ptr noundef %0, i32 noundef %1) #0 {
  %3 = alloca ptr, align 8
  %4 = alloca i32, align 4
  %5 = alloca ptr, align 8
  %6 = alloca ptr, align 8
  store ptr %0, ptr %3, align 8
  store i32 %1, ptr %4, align 4
  call void @llvm.lifetime.start.p0(i64 8, ptr %5) #7
  %7 = load ptr, ptr %3, align 8
  store ptr %7, ptr %5, align 8
  call void @llvm.lifetime.start.p0(i64 8, ptr %6) #7
  %8 = load ptr, ptr %5, align 8
  store ptr %8, ptr %6, align 8
  %9 = load ptr, ptr %5, align 8
  call void @mask_page_lsn_and_checksum(ptr noundef %9)
  %10 = load ptr, ptr %5, align 8
  call void @mask_page_hint_bits(ptr noundef %10)
  %11 = load ptr, ptr %6, align 8
  %12 = getelementptr inbounds nuw %struct.PageHeaderData, ptr %11, i32 0, i32 3
  %13 = load i16, ptr %12, align 4
  %14 = zext i16 %13 to i64
  %15 = icmp uge i64 %14, 24
  br i1 %15, label %16, label %18

16:                                               ; preds = %2
  %17 = load ptr, ptr %5, align 8
  call void @mask_unused_space(ptr noundef %17)
  br label %18

18:                                               ; preds = %16, %2
  call void @llvm.lifetime.end.p0(i64 8, ptr %6) #7
  call void @llvm.lifetime.end.p0(i64 8, ptr %5) #7
  ret void
}