; Function Attrs: nounwind uwtable
define dso_local void @spg_mask(ptr noundef %0, i32 noundef %1) local_unnamed_addr #0 {
  tail call void @mask_page_lsn_and_checksum(ptr noundef %0) #6
  tail call void @mask_page_hint_bits(ptr noundef %0) #6
  %3 = getelementptr inbounds nuw i8, ptr %0, i64 12
  %4 = load i16, ptr %3, align 4
  %5 = icmp ugt i16 %4, 23
  br i1 %5, label %6, label %7

6:                                                ; preds = %2
  tail call void @mask_unused_space(ptr noundef nonnull %0) #6
  br label %7

7:                                                ; preds = %6, %2
  ret void
}